; Function Attrs: mustprogress uwtable
define i32 @proj_context_errno(ptr noundef readonly %0) local_unnamed_addr #1 {
  %2 = icmp eq ptr %0, null
  br i1 %2, label %3, label %5

3:                                                ; preds = %1
  %4 = tail call noundef ptr @_Z18pj_get_default_ctxv()
  br label %5

5:                                                ; preds = %3, %1
  %.0 = phi ptr [ %4, %3 ], [ %0, %1 ]
  %6 = getelementptr inbounds i8, ptr %.0, i64 32
  %7 = load i32, ptr %6, align 8
  ret i32 %7
}